target datalayout = "e-m:e-p270:32:32-p271:32:32-p272:64:64-i64:64-i128:128-f80:128-n8:16:32:64-S128"
target triple = "x86_64-pc-linux-gnu"

; Function Attrs: nounwind uwtable
define internal i32 @BitsLog2Floor(i32 noundef %0) #0 {
  %2 = alloca i32, align 4
  store i32 %0, ptr %2, align 4
  %3 = load i32, ptr %2, align 4
  %4 = call i32 @llvm.ctlz.i32(i32 %3, i1 true)
  %5 = xor i32 31, %4
  ret i32 %5
}

; Function Attrs: nounwind uwtable
define internal float @FastSLog2Slow_C(i32 noundef %0) #0 {
  %2 = alloca float, align 4
  %3 = alloca i32, align 4
  %4 = alloca i32, align 4
  %5 = alloca i32, align 4
  %6 = alloca i32, align 4
  %7 = alloca float, align 4
  %8 = alloca i32, align 4
  store i32 %0, ptr %3, align 4
  %9 = load i32, ptr %3, align 4
  %10 = icmp ult i32 %9, 65536
  br i1 %10, label %11, label %40

11:                                               ; preds = %1
  %12 = load i32, ptr %3, align 4
  %13 = call i32 @BitsLog2Floor(i32 noundef %12)
  %14 = sub nsw i32 %13, 7
  store i32 %14, ptr %4, align 4
  %15 = load i32, ptr %4, align 4
  %16 = shl i32 1, %15
  store i32 %16, ptr %5, align 4
  store i32 0, ptr %6, align 4
  %17 = load i32, ptr %3, align 4
  %18 = uitofp i32 %17 to float
  store float %18, ptr %7, align 4
  %19 = load i32, ptr %3, align 4
  store i32 %19, ptr %8, align 4
  %20 = load i32, ptr %4, align 4
  %21 = load i32, ptr %3, align 4
  %22 = lshr i32 %21, %20
  store i32 %22, ptr %3, align 4
  %23 = load i32, ptr %8, align 4
  %24 = load i32, ptr %5, align 4
  %25 = sub i32 %24, 1
  %26 = and i32 %23, %25
  %27 = mul i32 23, %26
  %28 = lshr i32 %27, 4
  store i32 %28, ptr %6, align 4
  %29 = load float, ptr %7, align 4
  %30 = load i32, ptr %3, align 4
  %31 = zext i32 %30 to i64
  %32 = getelementptr inbounds [256 x float], ptr @kLog2Table, i64 0, i64 %31
  %33 = load float, ptr %32, align 4
  %34 = load i32, ptr %4, align 4
  %35 = sitofp i32 %34 to float
  %36 = fadd float %33, %35
  %37 = load i32, ptr %6, align 4
  %38 = sitofp i32 %37 to float
  %39 = call float @llvm.fmuladd.f32(float %29, float %36, float %38)
  store float %39, ptr %2, align 4
  br label %49

40:                                               ; preds = %1
  %41 = load i32, ptr %3, align 4
  %42 = uitofp i32 %41 to double
  %43 = fmul double 0x3FF71547652B82FE, %42
  %44 = load i32, ptr %3, align 4
  %45 = uitofp i32 %44 to double
  %46 = call double @log(double noundef %45) #6
  %47 = fmul double %43, %46
  %48 = fptrunc double %47 to float
  store float %48, ptr %2, align 4
  br label %49

49:                                               ; preds = %40, %11
  %50 = load float, ptr %2, align 4
  ret float %50
}