; Function Attrs: mustprogress nofree nounwind willreturn memory(write) uwtable
define internal float @FastSLog2Slow_C(i32 noundef %0) #8 {
  %2 = icmp ult i32 %0, 65536
  br i1 %2, label %3, label %19

3:                                                ; preds = %1
  %4 = tail call range(i32 0, 33) i32 @llvm.ctlz.i32(i32 %0, i1 true)
  %5 = sub nsw i32 24, %4
  %6 = uitofp nneg i32 %0 to float
  %7 = lshr i32 %0, %5
  %notmask = shl nsw i32 -1, %5
  %8 = xor i32 %notmask, -1
  %9 = and i32 %8, %0
  %10 = mul nuw nsw i32 %9, 23
  %11 = lshr i32 %10, 4
  %12 = zext nneg i32 %7 to i64
  %13 = getelementptr inbounds [256 x float], ptr @kLog2Table, i64 0, i64 %12
  %14 = load float, ptr %13, align 4
  %15 = sitofp i32 %5 to float
  %16 = fadd float %14, %15
  %17 = uitofp nneg i32 %11 to float
  %18 = tail call float @llvm.fmuladd.f32(float %6, float %16, float %17)
  br label %25

19:                                               ; preds = %1
  %20 = uitofp i32 %0 to double
  %21 = fmul double %20, 0x3FF71547652B82FE
  %22 = tail call double @log(double noundef %20) #12
  %23 = fmul double %21, %22
  %24 = fptrunc double %23 to float
  br label %25

25:                                               ; preds = %19, %3
  %.0 = phi float [ %18, %3 ], [ %24, %19 ]
  ret float %.0
}